; Function Attrs: mustprogress nofree norecurse nosync nounwind willreturn memory(argmem: write) uwtable
define void @_ZNK6casadi6MXNode4infoB5cxx11Ev(ptr dead_on_unwind noalias writable sret(%"class.std::map.97") align 8 %0, ptr nocapture nonnull readnone align 8 %1) unnamed_addr #13 align 2 personality ptr @__gxx_personality_v0 {
  %3 = getelementptr inbounds i8, ptr %0, i64 8
  %4 = getelementptr inbounds i8, ptr %0, i64 24
  tail call void @llvm.memset.p0.i64(ptr noundef nonnull align 8 dereferenceable(24) %0, i8 0, i64 24, i1 false)
  store ptr %3, ptr %4, align 8
  %5 = getelementptr inbounds i8, ptr %0, i64 32
  store ptr %3, ptr %5, align 8
  %6 = getelementptr inbounds i8, ptr %0, i64 40
  store i64 0, ptr %6, align 8
  ret void
}